(i__main__
ID3Classifier
p0
(dp1
S'attributes_count'
p2
I0
sS'attributes_values'
p3
(dp4
sS'builder'
p5
(i__main__
ID3Builder
p6
(dp7
g3
g4
sS'confidence_level'
p8
F0.01
sbsS'tree'
p9
NsS'attributes_name_book'
p10
(dp11
sS'data'
p12
(lp13
((lp14
I1
aI2
aI1
aI2
aI1
aI0
tp15
a((lp16
I1
aI1
aI1
aI1
aI1
aI1
tp17
a((lp18
I2
aI3
aI4
aI5
aI1
aI0
tp19
a((lp20
I5
aI3
aI2
aI1
aI4
aI1
tp21
a((lp22
I5
aI1
aI2
aI3
aI4
aI0
tp23
asb.